; Function Attrs: mustprogress uwtable
define void @_ZN8proxygen18HTTP2PriorityQueue4Node28propagatePendingEgressSignalEPS1_(ptr noundef %node) local_unnamed_addr #4 align 2 personality ptr @__gxx_personality_v0 {
entry:
  %ref.tmp3.i = alloca %"class.google::LogMessageFatal", align 8
  %totalEnqueuedWeight_ = getelementptr inbounds i8, ptr %node, i64 120
  %0 = load i64, ptr %totalEnqueuedWeight_, align 8
  %cmp = icmp ne i64 %0, 0
  %parent.0.in9 = getelementptr inbounds i8, ptr %node, i64 80
  %parent.010 = load ptr, ptr %parent.0.in9, align 8
  %tobool11 = icmp eq ptr %parent.010, null
  %.not12 = select i1 %tobool11, i1 true, i1 %cmp
  br i1 %.not12, label %while.end, label %while.body

while.body:                                       ; preds = %entry, %_ZN8proxygen18HTTP2PriorityQueue4Node16addEnqueuedChildEPS1_.exit
  %parent.014 = phi ptr [ %parent.0, %_ZN8proxygen18HTTP2PriorityQueue4Node16addEnqueuedChildEPS1_.exit ], [ %parent.010, %entry ]
  %node.addr.013 = phi ptr [ %parent.014, %_ZN8proxygen18HTTP2PriorityQueue4Node16addEnqueuedChildEPS1_.exit ], [ %node, %entry ]
  %vtable.i = load ptr, ptr %parent.014, align 8
  %vfn.i = getelementptr inbounds i8, ptr %vtable.i, i64 16
  %1 = load ptr, ptr %vfn.i, align 8
  %call.i = tail call noundef zeroext i1 %1(ptr noundef nonnull align 8 dereferenceable(200) %parent.014)
  %totalEnqueuedWeight_.i = getelementptr inbounds i8, ptr %parent.014, i64 120
  %2 = load i64, ptr %totalEnqueuedWeight_.i, align 8
  %weight_ = getelementptr inbounds i8, ptr %node.addr.013, i64 96
  %3 = load i16, ptr %weight_, align 8
  %conv = zext i16 %3 to i64
  %add = add i64 %2, %conv
  store i64 %add, ptr %totalEnqueuedWeight_.i, align 8
  call void @llvm.lifetime.start.p0(i64 96, ptr nonnull %ref.tmp3.i)
  %enqueuedHook_.i = getelementptr inbounds i8, ptr %node.addr.013, i64 168
  %4 = load ptr, ptr %enqueuedHook_.i, align 8
  %tobool.not.i.i = icmp eq ptr %4, null
  %cmp.i.i = icmp eq ptr %4, %enqueuedHook_.i
  %5 = or i1 %tobool.not.i.i, %cmp.i.i
  br i1 %5, label %_ZN8proxygen18HTTP2PriorityQueue4Node16addEnqueuedChildEPS1_.exit, label %cond.false.i

cond.false.i:                                     ; preds = %while.body
  call void @_ZN6google15LogMessageFatalC1EPKci(ptr noundef nonnull align 8 dereferenceable(96) %ref.tmp3.i, ptr noundef nonnull @.str, i32 noundef 167)
  %call4.i = invoke noundef nonnull align 8 dereferenceable(8) ptr @_ZN6google10LogMessage6streamEv(ptr noundef nonnull align 8 dereferenceable(96) %ref.tmp3.i)
          to label %invoke.cont.i unwind label %lpad.i

invoke.cont.i:                                    ; preds = %cond.false.i
  %call6.i = invoke noundef nonnull align 8 dereferenceable(8) ptr @_ZStlsISt11char_traitsIcEERSt13basic_ostreamIcT_ES5_PKc(ptr noundef nonnull align 8 dereferenceable(8) %call4.i, ptr noundef nonnull @.str.7)
          to label %cleanup.action.i unwind label %lpad.i

cleanup.action.i:                                 ; preds = %invoke.cont.i
  call void @_ZN6google15LogMessageFatalD1Ev(ptr noundef nonnull align 8 dereferenceable(96) %ref.tmp3.i) #30
  unreachable

lpad.i:                                           ; preds = %invoke.cont.i, %cond.false.i
  %6 = landingpad { ptr, i32 }
          cleanup
  call void @_ZN6google15LogMessageFatalD1Ev(ptr noundef nonnull align 8 dereferenceable(96) %ref.tmp3.i) #30
  unreachable

_ZN8proxygen18HTTP2PriorityQueue4Node16addEnqueuedChildEPS1_.exit: ; preds = %while.body
  %cmp.i = icmp ne i64 %2, 0
  %enqueuedChildren_.i = getelementptr inbounds i8, ptr %parent.014, i64 184
  %prev_.i8.i.i.i = getelementptr inbounds i8, ptr %parent.014, i64 192
  %7 = load ptr, ptr %prev_.i8.i.i.i, align 8
  %prev_.i6.i.i.i = getelementptr inbounds i8, ptr %node.addr.013, i64 176
  store ptr %7, ptr %prev_.i6.i.i.i, align 8
  store ptr %enqueuedChildren_.i, ptr %enqueuedHook_.i, align 8
  store ptr %enqueuedHook_.i, ptr %prev_.i8.i.i.i, align 8
  store ptr %enqueuedHook_.i, ptr %7, align 8
  call void @llvm.lifetime.end.p0(i64 96, ptr nonnull %ref.tmp3.i)
  %parent.0.in = getelementptr inbounds i8, ptr %parent.014, i64 80
  %parent.0 = load ptr, ptr %parent.0.in, align 8
  %tobool = icmp eq ptr %parent.0, null
  %8 = or i1 %tobool, %call.i
  %.not = select i1 %8, i1 true, i1 %cmp.i
  br i1 %.not, label %while.end, label %while.body, !llvm.loop !20

while.end:                                        ; preds = %_ZN8proxygen18HTTP2PriorityQueue4Node16addEnqueuedChildEPS1_.exit, %entry
  ret void
}